; Function Attrs: mustprogress uwtable
define dso_local noundef zeroext i16 @_ZN17FileLineSingleton11msgEnSetBitEtmb(ptr noundef nonnull align 8 dereferenceable(328) %0, i16 noundef zeroext %1, i64 noundef %2, i1 noundef zeroext %3) local_unnamed_addr #3 align 2 {
  %5 = alloca %"class.std::bitset", align 8
  %6 = getelementptr inbounds i8, ptr %0, i64 304
  %7 = zext i16 %1 to i64
  %8 = getelementptr inbounds i8, ptr %0, i64 312
  %9 = load ptr, ptr %8, align 8
  %10 = load ptr, ptr %6, align 8
  %11 = ptrtoint ptr %9 to i64
  %12 = ptrtoint ptr %10 to i64
  %13 = sub i64 %11, %12
  %14 = ashr exact i64 %13, 4
  %.not.i.i.i = icmp ugt i64 %14, %7
  br i1 %.not.i.i.i, label %_ZNK17FileLineSingleton5msgEnEt.exit, label %15

15:                                               ; preds = %4
  tail call void (ptr, ...) @_ZSt24__throw_out_of_range_fmtPKcz(ptr noundef nonnull @.str.61, i64 noundef %7, i64 noundef %14) #22
  unreachable

_ZNK17FileLineSingleton5msgEnEt.exit:             ; preds = %4
  %16 = getelementptr inbounds %"class.std::bitset", ptr %10, i64 %7
  %17 = icmp ugt i64 %2, 118
  br i1 %17, label %18, label %_ZNKSt6bitsetILm119EE4testEm.exit

18:                                               ; preds = %_ZNK17FileLineSingleton5msgEnEt.exit
  tail call void (ptr, ...) @_ZSt24__throw_out_of_range_fmtPKcz(ptr noundef nonnull @.str.69, ptr noundef nonnull @.str.68, i64 noundef %2, i64 noundef 119) #22
  unreachable

_ZNKSt6bitsetILm119EE4testEm.exit:                ; preds = %_ZNK17FileLineSingleton5msgEnEt.exit
  %19 = lshr i64 %2, 6
  %20 = getelementptr inbounds [2 x i64], ptr %16, i64 0, i64 %19
  %21 = load i64, ptr %20, align 8
  %22 = and i64 %2, 63
  %23 = shl nuw i64 1, %22
  %24 = and i64 %21, %23
  %25 = icmp ne i64 %24, 0
  %26 = xor i1 %25, %3
  br i1 %26, label %_ZNKSt6bitsetILm119EE8_M_checkEmPKc.exit.i, label %37

_ZNKSt6bitsetILm119EE8_M_checkEmPKc.exit.i:       ; preds = %_ZNKSt6bitsetILm119EE4testEm.exit
  call void @llvm.memcpy.p0.p0.i64(ptr noundef nonnull align 8 dereferenceable(16) %5, ptr noundef nonnull align 8 dereferenceable(16) %16, i64 16, i1 false)
  br i1 %3, label %27, label %31

27:                                               ; preds = %_ZNKSt6bitsetILm119EE8_M_checkEmPKc.exit.i
  %28 = getelementptr inbounds [2 x i64], ptr %5, i64 0, i64 %19
  %29 = load i64, ptr %28, align 8
  %30 = or i64 %29, %23
  store i64 %30, ptr %28, align 8
  br label %_ZNSt6bitsetILm119EE3setEmb.exit

31:                                               ; preds = %_ZNKSt6bitsetILm119EE8_M_checkEmPKc.exit.i
  %32 = xor i64 %23, -1
  %33 = getelementptr inbounds [2 x i64], ptr %5, i64 0, i64 %19
  %34 = load i64, ptr %33, align 8
  %35 = and i64 %34, %32
  store i64 %35, ptr %33, align 8
  br label %_ZNSt6bitsetILm119EE3setEmb.exit

_ZNSt6bitsetILm119EE3setEmb.exit:                 ; preds = %27, %31
  %36 = call noundef zeroext i16 @_ZN17FileLineSingleton14addMsgEnBitSetERKSt6bitsetILm119EE(ptr noundef nonnull align 8 dereferenceable(328) %0, ptr noundef nonnull align 8 dereferenceable(16) %5)
  br label %37

37:                                               ; preds = %_ZNKSt6bitsetILm119EE4testEm.exit, %_ZNSt6bitsetILm119EE3setEmb.exit
  %.0 = phi i16 [ %36, %_ZNSt6bitsetILm119EE3setEmb.exit ], [ %1, %_ZNKSt6bitsetILm119EE4testEm.exit ]
  ret i16 %.0
}